target datalayout = "e-m:e-p270:32:32-p271:32:32-p272:64:64-i64:64-i128:128-f80:128-n8:16:32:64-S128"
target triple = "x86_64-pc-linux-gnu"

%struct._address = type { i32, i32, ptr, ptr }
%struct.profile = type { i16, i8, %struct._address, i32, i32, ptr, ptr, ptr, ptr, ptr, ptr, ptr, i32, ptr, ptr, ptr }
%struct.object = type { %struct.od_entry, ptr }
%struct.od_entry = type { i16, i16, [64 x i8], ptr, i64 }

; Function Attrs: nounwind uwtable
define hidden ptr @epl_profile_object_add(ptr noundef %0, i16 noundef zeroext %1) #0 {
  %3 = alloca ptr, align 8
  %4 = alloca i16, align 2
  %5 = alloca ptr, align 8
  store ptr %0, ptr %3, align 8
  store i16 %1, ptr %4, align 2
  %6 = load ptr, ptr %3, align 8
  %7 = getelementptr inbounds %struct.profile, ptr %6, i32 0, i32 6
  %8 = load ptr, ptr %7, align 8
  %9 = call noalias ptr @wmem_alloc0(ptr noundef %8, i64 noundef 96)
  store ptr %9, ptr %5, align 8
  %10 = load i16, ptr %4, align 2
  %11 = load ptr, ptr %5, align 8
  %12 = getelementptr inbounds %struct.object, ptr %11, i32 0, i32 0
  %13 = getelementptr inbounds %struct.od_entry, ptr %12, i32 0, i32 0
  store i16 %10, ptr %13, align 8
  %14 = load ptr, ptr %3, align 8
  %15 = getelementptr inbounds %struct.profile, ptr %14, i32 0, i32 5
  %16 = load ptr, ptr %15, align 8
  %17 = load ptr, ptr %5, align 8
  %18 = getelementptr inbounds %struct.object, ptr %17, i32 0, i32 0
  %19 = getelementptr inbounds %struct.od_entry, ptr %18, i32 0, i32 0
  %20 = load i16, ptr %19, align 8
  %21 = zext i16 %20 to i64
  %22 = inttoptr i64 %21 to ptr
  %23 = load ptr, ptr %5, align 8
  %24 = call ptr @wmem_map_insert(ptr noundef %16, ptr noundef %22, ptr noundef %23)
  %25 = load ptr, ptr %5, align 8
  ret ptr %25
}