; Function Attrs: nounwind uwtable
define hidden noundef ptr @epl_profile_object_add(ptr noundef readonly captures(none) %0, i16 noundef zeroext %1) local_unnamed_addr #2 {
  %3 = getelementptr inbounds nuw i8, ptr %0, i64 48
  %4 = load ptr, ptr %3, align 8
  %5 = tail call noalias ptr @wmem_alloc0(ptr noundef %4, i64 noundef 96) #18
  store i16 %1, ptr %5, align 8
  %6 = getelementptr inbounds nuw i8, ptr %0, i64 40
  %7 = load ptr, ptr %6, align 8
  %8 = zext i16 %1 to i64
  %9 = inttoptr i64 %8 to ptr
  %10 = tail call ptr @wmem_map_insert(ptr noundef %7, ptr noundef %9, ptr noundef nonnull %5) #18
  ret ptr %5
}